
Memory Configuration

Name             Origin             Length             Attributes
*default*        0x0000000000000000 0xffffffffffffffff

Linker script and memory map

LOAD c:/devkitpro/devkitarm/bin/../lib/gcc/arm-none-eabi/11.1.0\libgcc.a
LOAD message.o
LOAD settings.o
LOAD spoiler_data.o
                0x0000000000100000                . = 0x100000

.glue_7         0x0000000000100000        0x0
 .glue_7        0x0000000000100000        0x0 linker stubs

.glue_7t        0x0000000000100000        0x0
 .glue_7t       0x0000000000100000        0x0 linker stubs

.vfp11_veneer   0x0000000000100000        0x0
 .vfp11_veneer  0x0000000000100000        0x0 linker stubs

.v4_bx          0x0000000000100000        0x0
 .v4_bx         0x0000000000100000        0x0 linker stubs

.text           0x0000000000100000        0x0
 .text          0x0000000000100000        0x0 message.o
 .text          0x0000000000100000        0x0 settings.o
 .text          0x0000000000100000        0x0 spoiler_data.o

.text.Message_GetCustomEntry
                0x0000000000100000      0x11c
 .text.Message_GetCustomEntry
                0x0000000000100000      0x11c message.o
                0x0000000000100000                Message_GetCustomEntry

.text.Message_GetCustomText
                0x000000000010011c       0x48
 .text.Message_GetCustomText
                0x000000000010011c       0x48 message.o
                0x000000000010011c                Message_GetCustomText

.iplt           0x0000000000100164        0x0
 .iplt          0x0000000000100164        0x0 message.o

.text.Settings_ApplyDamageMultiplier
                0x0000000000100164      0x1d0
 .text.Settings_ApplyDamageMultiplier
                0x0000000000100164      0x1d0 settings.o
                0x0000000000100164                Settings_ApplyDamageMultiplier

.text.Hash      0x0000000000100334      0x104
 .text.Hash     0x0000000000100334      0x104 settings.o
                0x0000000000100334                Hash

.text.And       0x0000000000100438       0x80
 .text.And      0x0000000000100438       0x80 settings.o
                0x0000000000100438                And

.text.Bias      0x00000000001004b8       0xdc
 .text.Bias     0x00000000001004b8       0xdc settings.o
                0x00000000001004b8                Bias

.text.SpoilerData_GetItemLocationString
                0x0000000000100594       0x4c
 .text.SpoilerData_GetItemLocationString
                0x0000000000100594       0x4c spoiler_data.o
                0x0000000000100594                SpoilerData_GetItemLocationString

.text.SpoilerData_GetItemNameString
                0x00000000001005e0       0x4c
 .text.SpoilerData_GetItemNameString
                0x00000000001005e0       0x4c spoiler_data.o
                0x00000000001005e0                SpoilerData_GetItemNameString

.text.GetSpoilerItemLocation
                0x000000000010062c       0x84
 .text.GetSpoilerItemLocation
                0x000000000010062c       0x84 spoiler_data.o
                0x000000000010062c                GetSpoilerItemLocation

.text.SpoilerData_ChestCheck
                0x00000000001006b0       0x1c
 .text.SpoilerData_ChestCheck
                0x00000000001006b0       0x1c spoiler_data.o
                0x00000000001006b0                SpoilerData_ChestCheck

.text.SpoilerData_CollectableCheck
                0x00000000001006cc       0x1c
 .text.SpoilerData_CollectableCheck
                0x00000000001006cc       0x1c spoiler_data.o
                0x00000000001006cc                SpoilerData_CollectableCheck

.text.SpoilerData_ItemGetInfCheck
                0x00000000001006e8       0xa0
 .text.SpoilerData_ItemGetInfCheck
                0x00000000001006e8       0xa0 spoiler_data.o
                0x00000000001006e8                SpoilerData_ItemGetInfCheck

.text.SpoilerData_InfTableCheck
                0x0000000000100788       0xa0
 .text.SpoilerData_InfTableCheck
                0x0000000000100788       0xa0 spoiler_data.o
                0x0000000000100788                SpoilerData_InfTableCheck

.text.SpoilerData_QuestItemCheck
                0x0000000000100828       0x44
 .text.SpoilerData_QuestItemCheck
                0x0000000000100828       0x44 spoiler_data.o
                0x0000000000100828                SpoilerData_QuestItemCheck

.text.SpoilerData_UpgradeCheck
                0x000000000010086c       0x44
 .text.SpoilerData_UpgradeCheck
                0x000000000010086c       0x44 spoiler_data.o
                0x000000000010086c                SpoilerData_UpgradeCheck

.text.SpoilerData_CowCheck
                0x00000000001008b0       0x20
 .text.SpoilerData_CowCheck
                0x00000000001008b0       0x20 spoiler_data.o
                0x00000000001008b0                SpoilerData_CowCheck

.text.SpoilerData_FishingCheck
                0x00000000001008d0       0x20
 .text.SpoilerData_FishingCheck
                0x00000000001008d0       0x20 spoiler_data.o
                0x00000000001008d0                SpoilerData_FishingCheck

.text.SpoilerData_ScrubCheck
                0x00000000001008f0       0x68
 .text.SpoilerData_ScrubCheck
                0x00000000001008f0       0x68 spoiler_data.o
                0x00000000001008f0                SpoilerData_ScrubCheck

.text.SpoilerData_ShopItemCheck
                0x0000000000100958       0x70
 .text.SpoilerData_ShopItemCheck
                0x0000000000100958       0x70 spoiler_data.o
                0x0000000000100958                SpoilerData_ShopItemCheck

.text.SpoilerData_MagicBeansCheck
                0x00000000001009c8       0x44
 .text.SpoilerData_MagicBeansCheck
                0x00000000001009c8       0x44 spoiler_data.o
                0x00000000001009c8                SpoilerData_MagicBeansCheck

.text.SpoilerData_GetIsItemLocationCollected
                0x0000000000100a0c      0x1ec
 .text.SpoilerData_GetIsItemLocationCollected
                0x0000000000100a0c      0x1ec spoiler_data.o
                0x0000000000100a0c                SpoilerData_GetIsItemLocationCollected

.rodata         0x0000000000100bf8      0x320
 .rodata        0x0000000000100bf8      0x320 settings.o
                0x0000000000100bf8                hashIconNames

.rel.dyn        0x0000000000100f18        0x0
 .rel.iplt      0x0000000000100f18        0x0 message.o

.data           0x0000000000100f18        0x4
 .data          0x0000000000100f18        0x4 message.o
                0x0000000000100f18                numCustomMessageEntries
 .data          0x0000000000100f1c        0x0 settings.o
 .data          0x0000000000100f1c        0x0 spoiler_data.o

.igot.plt       0x0000000000100f1c        0x0
 .igot.plt      0x0000000000100f1c        0x0 message.o

.bss            0x0000000000100f1c     0x561c
 .bss           0x0000000000100f1c        0x4 message.o
                0x0000000000100f1c                ptrCustomMessageEntries
 .bss           0x0000000000100f20       0xa9 settings.o
                0x0000000000100f20                gSettingsContext
                0x0000000000100fc8                Damage32
 *fill*         0x0000000000100fc9        0x3 
 .bss           0x0000000000100fcc     0x556c spoiler_data.o
                0x0000000000100fcc                gSpoilerData

.patch_loader
 *(.patch_loader)
OUTPUT(C:/Users/SKREEE/Desktop/ZMM3DR/application/code/code.elf elf32-littlearm)
LOAD linker stubs

.debug_info     0x0000000000000000     0x42c4
 .debug_info    0x0000000000000000      0x296 message.o
 .debug_info    0x0000000000000296     0x2728 settings.o
 .debug_info    0x00000000000029be     0x1906 spoiler_data.o

.debug_abbrev   0x0000000000000000      0x611
 .debug_abbrev  0x0000000000000000      0x14a message.o
 .debug_abbrev  0x000000000000014a      0x2be settings.o
 .debug_abbrev  0x0000000000000408      0x209 spoiler_data.o

.debug_aranges  0x0000000000000000       0xf0
 .debug_aranges
                0x0000000000000000       0x28 message.o
 .debug_aranges
                0x0000000000000028       0x38 settings.o
 .debug_aranges
                0x0000000000000060       0x90 spoiler_data.o

.debug_rnglists
                0x0000000000000000       0xae
 .debug_rnglists
                0x0000000000000000       0x1a message.o
 .debug_rnglists
                0x000000000000001a       0x29 settings.o
 .debug_rnglists
                0x0000000000000043       0x6b spoiler_data.o

.debug_line     0x0000000000000000      0x820
 .debug_line    0x0000000000000000      0x1c3 message.o
 .debug_line    0x00000000000001c3      0x2d2 settings.o
 .debug_line    0x0000000000000495      0x38b spoiler_data.o

.debug_str      0x0000000000000000     0x22ae
 .debug_str     0x0000000000000000      0x25e message.o
                                        0x2a8 (size before relaxing)
 .debug_str     0x000000000000025e     0x1878 settings.o
                                       0x1a79 (size before relaxing)
 .debug_str     0x0000000000001ad6      0x7d8 spoiler_data.o
                                       0x1901 (size before relaxing)

.comment        0x0000000000000000       0x23
 .comment       0x0000000000000000       0x23 message.o
                                         0x24 (size before relaxing)
 .comment       0x0000000000000023       0x24 settings.o
 .comment       0x0000000000000023       0x24 spoiler_data.o

.ARM.attributes
                0x0000000000000000       0x2e
 .ARM.attributes
                0x0000000000000000       0x2e message.o
 .ARM.attributes
                0x000000000000002e       0x2e settings.o
 .ARM.attributes
                0x000000000000005c       0x2e spoiler_data.o

.debug_frame    0x0000000000000000      0x23c
 .debug_frame   0x0000000000000000       0x48 message.o
 .debug_frame   0x0000000000000048       0x74 settings.o
 .debug_frame   0x00000000000000bc      0x180 spoiler_data.o
